target datalayout = "e-m:e-p270:32:32-p271:32:32-p272:64:64-i64:64-i128:128-f80:128-n8:16:32:64-S128"
target triple = "x86_64-unknown-linux-gnu"

%"class.Assimp::Ogre::OgreBinarySerializer" = type <{ i32, [4 x i8], ptr, i32, [4 x i8] }>
%"class.Assimp::StreamReader" = type <{ %"class.std::shared_ptr", ptr, ptr, ptr, ptr, i8, [7 x i8] }>
%"class.std::shared_ptr" = type { %"class.std::__shared_ptr" }
%"class.std::__shared_ptr" = type { ptr, %"class.std::__shared_count" }
%"class.std::__shared_count" = type { ptr }

@_ZTI17DeadlyImportError = linkonce_odr constant { ptr, ptr, ptr } { ptr getelementptr inbounds (ptr, ptr @_ZTVN10__cxxabiv120__si_class_type_infoE, i64 2), ptr @_ZTS17DeadlyImportError, ptr @_ZTI15DeadlyErrorBase }, comdat, align 8
@.str.68 = private unnamed_addr constant [38 x i8] c"End of file or read limit was reached\00", align 1

; Function Attrs: mustprogress uwtable
define linkonce_odr hidden void @_ZN6Assimp12StreamReaderILb0ELb0EE6IncPtrEl(ptr noundef nonnull align 8 dereferenceable(49) %this, i64 noundef %plus) #2 comdat align 2 personality ptr @__gxx_personality_v0 {
entry:
  %this.addr = alloca ptr, align 8
  %plus.addr = alloca i64, align 8
  %exn.slot = alloca ptr, align 8
  %ehselector.slot = alloca i32, align 4
  store ptr %this, ptr %this.addr, align 8
  store i64 %plus, ptr %plus.addr, align 8
  %this1 = load ptr, ptr %this.addr, align 8
  %0 = load i64, ptr %plus.addr, align 8
  %mCurrent = getelementptr inbounds %"class.Assimp::StreamReader", ptr %this1, i32 0, i32 2
  %1 = load ptr, ptr %mCurrent, align 8
  %add.ptr = getelementptr inbounds i8, ptr %1, i64 %0
  store ptr %add.ptr, ptr %mCurrent, align 8
  %mCurrent2 = getelementptr inbounds %"class.Assimp::StreamReader", ptr %this1, i32 0, i32 2
  %2 = load ptr, ptr %mCurrent2, align 8
  %mLimit = getelementptr inbounds %"class.Assimp::StreamReader", ptr %this1, i32 0, i32 4
  %3 = load ptr, ptr %mLimit, align 8
  %cmp = icmp ugt ptr %2, %3
  br i1 %cmp, label %if.then, label %if.end

if.then:                                          ; preds = %entry
  %exception = call ptr @__cxa_allocate_exception(i64 16) #5
  invoke void @_ZN17DeadlyImportErrorC2EPKc(ptr noundef nonnull align 8 dereferenceable(16) %exception, ptr noundef @.str.68)
          to label %invoke.cont unwind label %lpad

invoke.cont:                                      ; preds = %if.then
  call void @__cxa_throw(ptr %exception, ptr @_ZTI17DeadlyImportError, ptr @_ZN17DeadlyImportErrorD2Ev) #16
  unreachable

lpad:                                             ; preds = %if.then
  %4 = landingpad { ptr, i32 }
          cleanup
  %5 = extractvalue { ptr, i32 } %4, 0
  store ptr %5, ptr %exn.slot, align 8
  %6 = extractvalue { ptr, i32 } %4, 1
  store i32 %6, ptr %ehselector.slot, align 4
  call void @__cxa_free_exception(ptr %exception) #5
  br label %eh.resume

if.end:                                           ; preds = %entry
  ret void

eh.resume:                                        ; preds = %lpad
  %exn = load ptr, ptr %exn.slot, align 8
  %sel = load i32, ptr %ehselector.slot, align 4
  %lpad.val = insertvalue { ptr, i32 } poison, ptr %exn, 0
  %lpad.val3 = insertvalue { ptr, i32 } %lpad.val, i32 %sel, 1
  resume { ptr, i32 } %lpad.val3
}

; Function Attrs: mustprogress uwtable
define hidden void @_ZN6Assimp4Ogre20OgreBinarySerializer9SkipBytesEm(ptr noundef nonnull align 8 dereferenceable(20) %this, i64 noundef %numBytes) #2 align 2 {
entry:
  %this.addr = alloca ptr, align 8
  %numBytes.addr = alloca i64, align 8
  store ptr %this, ptr %this.addr, align 8
  store i64 %numBytes, ptr %numBytes.addr, align 8
  %this1 = load ptr, ptr %this.addr, align 8
  %m_reader = getelementptr inbounds %"class.Assimp::Ogre::OgreBinarySerializer", ptr %this1, i32 0, i32 2
  %0 = load ptr, ptr %m_reader, align 8
  %1 = load i64, ptr %numBytes.addr, align 8
  call void @_ZN6Assimp12StreamReaderILb0ELb0EE6IncPtrEl(ptr noundef nonnull align 8 dereferenceable(49) %0, i64 noundef %1)
  ret void
}