; Function Attrs: mustprogress uwtable
define hidden void @_ZN6Assimp4Ogre20OgreBinarySerializer9SkipBytesEm(ptr nocapture noundef nonnull readonly align 8 dereferenceable(20) %this, i64 noundef %numBytes) local_unnamed_addr #2 align 2 personality ptr @__gxx_personality_v0 {
entry:
  %m_reader = getelementptr inbounds i8, ptr %this, i64 8
  %0 = load ptr, ptr %m_reader, align 8
  %mCurrent.i = getelementptr inbounds i8, ptr %0, i64 24
  %1 = load ptr, ptr %mCurrent.i, align 8
  %add.ptr.i = getelementptr inbounds i8, ptr %1, i64 %numBytes
  store ptr %add.ptr.i, ptr %mCurrent.i, align 8
  %mLimit.i = getelementptr inbounds i8, ptr %0, i64 40
  %2 = load ptr, ptr %mLimit.i, align 8
  %cmp.i = icmp ugt ptr %add.ptr.i, %2
  br i1 %cmp.i, label %if.then.i, label %_ZN6Assimp12StreamReaderILb0ELb0EE6IncPtrEl.exit

if.then.i:                                        ; preds = %entry
  %exception.i = tail call ptr @__cxa_allocate_exception(i64 16) #19
  invoke void @_ZN17DeadlyImportErrorC2EPKc(ptr noundef nonnull align 8 dereferenceable(16) %exception.i, ptr noundef nonnull @.str.68)
          to label %invoke.cont.i unwind label %lpad.i

invoke.cont.i:                                    ; preds = %if.then.i
  tail call void @__cxa_throw(ptr nonnull %exception.i, ptr nonnull @_ZTI17DeadlyImportError, ptr nonnull @_ZN17DeadlyImportErrorD2Ev) #20
  unreachable

lpad.i:                                           ; preds = %if.then.i
  %3 = landingpad { ptr, i32 }
          cleanup
  tail call void @__cxa_free_exception(ptr %exception.i) #19
  resume { ptr, i32 } %3

_ZN6Assimp12StreamReaderILb0ELb0EE6IncPtrEl.exit: ; preds = %entry
  ret void
}